target datalayout = "e-m:e-p270:32:32-p271:32:32-p272:64:64-i64:64-i128:128-f80:128-n8:16:32:64-S128"
target triple = "x86_64-pc-linux-gnu"

%struct._e_guid_t = type { i32, i16, i16, [8 x i8] }
%struct._dcerpc_info = type { ptr, i32, i64, i8, i8, i8, i32, i32, i32, i32, i32, i32, i32, i32, ptr, ptr, ptr, ptr, %struct.anon }
%struct.anon = type { i8, ptr, ptr, ptr, i8 }
%struct._packet_info = type { ptr, ptr, i32, i32, %struct.nstime_t, %struct.nstime_t, %struct.nstime_t, i8, ptr, ptr, ptr, ptr, %struct._address, %struct._address, %struct._address, %struct._address, %struct._address, %struct._address, i32, ptr, i8, [3 x i8], %struct.anon.0, i32, i32, i32, i32, ptr, i8, ptr, ptr, i16, i16, i32, i32, i16, i32, i32, ptr, ptr, ptr, i8, i8, i16, i16, i16, i32, i16, i16, ptr, ptr, ptr, ptr, ptr, i32, i32 }
%struct.nstime_t = type { i64, i32 }
%struct._address = type { i32, i32, ptr, ptr }
%struct.anon.0 = type { i8, [3 x i8] }
%struct._dcerpc_call_value = type { %struct._e_guid_t, i16, %struct._e_guid_t, i16, i32, %struct.nstime_t, i32, i32, ptr, ptr, ptr, i32 }

@ett_witness_witness_notifyResponse = internal global i32 0, align 4
@.str.13 = private unnamed_addr constant [34 x i8] c"Pointer to Message Buffer (uint8)\00", align 1
@hf_witness_witness_notifyResponse_messages = internal global i32 0, align 4
@hf_witness_witness_notifyResponse_length = internal global i32 0, align 4
@hf_witness_witness_notifyResponse_num = internal global i32 0, align 4
@hf_witness_witness_notifyResponse_type = internal global i32 0, align 4

; Function Attrs: null_pointer_is_valid sspstrong uwtable
define hidden i32 @witness_dissect_enum_notifyResponse_type(ptr noundef %0, i32 noundef %1, ptr noundef %2, ptr noundef %3, ptr noundef %4, ptr noundef %5, i32 noundef %6, ptr noundef %7) #0 {
  %9 = alloca ptr, align 8
  %10 = alloca i32, align 4
  %11 = alloca ptr, align 8
  %12 = alloca ptr, align 8
  %13 = alloca ptr, align 8
  %14 = alloca ptr, align 8
  %15 = alloca i32, align 4
  %16 = alloca ptr, align 8
  %17 = alloca i32, align 4
  store ptr %0, ptr %9, align 8
  store i32 %1, ptr %10, align 4
  store ptr %2, ptr %11, align 8
  store ptr %3, ptr %12, align 8
  store ptr %4, ptr %13, align 8
  store ptr %5, ptr %14, align 8
  store i32 %6, ptr %15, align 4
  store ptr %7, ptr %16, align 8
  call void @llvm.lifetime.start.p0(i64 4, ptr %17) #6
  store i32 0, ptr %17, align 4
  %18 = load ptr, ptr %16, align 8
  %19 = icmp ne ptr %18, null
  br i1 %19, label %20, label %23

20:                                               ; preds = %8
  %21 = load ptr, ptr %16, align 8
  %22 = load i32, ptr %21, align 4
  store i32 %22, ptr %17, align 4
  br label %23

23:                                               ; preds = %20, %8
  %24 = load ptr, ptr %9, align 8
  %25 = load i32, ptr %10, align 4
  %26 = load ptr, ptr %11, align 8
  %27 = load ptr, ptr %12, align 8
  %28 = load ptr, ptr %13, align 8
  %29 = load ptr, ptr %14, align 8
  %30 = load i32, ptr %15, align 4
  %31 = call i32 @dissect_ndr_uint32(ptr noundef %24, i32 noundef %25, ptr noundef %26, ptr noundef %27, ptr noundef %28, ptr noundef %29, i32 noundef %30, ptr noundef %17)
  store i32 %31, ptr %10, align 4
  %32 = load ptr, ptr %16, align 8
  %33 = icmp ne ptr %32, null
  br i1 %33, label %34, label %37

34:                                               ; preds = %23
  %35 = load i32, ptr %17, align 4
  %36 = load ptr, ptr %16, align 8
  store i32 %35, ptr %36, align 4
  br label %37

37:                                               ; preds = %34, %23
  %38 = load i32, ptr %10, align 4
  call void @llvm.lifetime.end.p0(i64 4, ptr %17) #6
  ret i32 %38
}

; Function Attrs: null_pointer_is_valid sspstrong uwtable
define internal i32 @witness_dissect_element_notifyResponse_num(ptr noundef %0, i32 noundef %1, ptr noundef %2, ptr noundef %3, ptr noundef %4, ptr noundef %5) #0 {
  %7 = alloca ptr, align 8
  %8 = alloca i32, align 4
  %9 = alloca ptr, align 8
  %10 = alloca ptr, align 8
  %11 = alloca ptr, align 8
  %12 = alloca ptr, align 8
  store ptr %0, ptr %7, align 8
  store i32 %1, ptr %8, align 4
  store ptr %2, ptr %9, align 8
  store ptr %3, ptr %10, align 8
  store ptr %4, ptr %11, align 8
  store ptr %5, ptr %12, align 8
  %13 = load ptr, ptr %7, align 8
  %14 = load i32, ptr %8, align 4
  %15 = load ptr, ptr %9, align 8
  %16 = load ptr, ptr %10, align 8
  %17 = load ptr, ptr %11, align 8
  %18 = load ptr, ptr %12, align 8
  %19 = load i32, ptr @hf_witness_witness_notifyResponse_num, align 4
  %20 = call i32 @PIDL_dissect_uint32(ptr noundef %13, i32 noundef %14, ptr noundef %15, ptr noundef %16, ptr noundef %17, ptr noundef %18, i32 noundef %19, i32 noundef 0)
  store i32 %20, ptr %8, align 4
  %21 = load i32, ptr %8, align 4
  ret i32 %21
}

; Function Attrs: null_pointer_is_valid sspstrong uwtable
define internal i32 @witness_dissect_element_notifyResponse_length(ptr noundef %0, i32 noundef %1, ptr noundef %2, ptr noundef %3, ptr noundef %4, ptr noundef %5) #0 {
  %7 = alloca ptr, align 8
  %8 = alloca i32, align 4
  %9 = alloca ptr, align 8
  %10 = alloca ptr, align 8
  %11 = alloca ptr, align 8
  %12 = alloca ptr, align 8
  store ptr %0, ptr %7, align 8
  store i32 %1, ptr %8, align 4
  store ptr %2, ptr %9, align 8
  store ptr %3, ptr %10, align 8
  store ptr %4, ptr %11, align 8
  store ptr %5, ptr %12, align 8
  %13 = load ptr, ptr %7, align 8
  %14 = load i32, ptr %8, align 4
  %15 = load ptr, ptr %9, align 8
  %16 = load ptr, ptr %10, align 8
  %17 = load ptr, ptr %11, align 8
  %18 = load ptr, ptr %12, align 8
  %19 = load i32, ptr @hf_witness_witness_notifyResponse_length, align 4
  %20 = call i32 @PIDL_dissect_uint32(ptr noundef %13, i32 noundef %14, ptr noundef %15, ptr noundef %16, ptr noundef %17, ptr noundef %18, i32 noundef %19, i32 noundef 0)
  store i32 %20, ptr %8, align 4
  %21 = load i32, ptr %8, align 4
  ret i32 %21
}

; Function Attrs: null_pointer_is_valid sspstrong uwtable
define internal i32 @witness_dissect_element_notifyResponse_type(ptr noundef %0, i32 noundef %1, ptr noundef %2, ptr noundef %3, ptr noundef %4, ptr noundef %5, ptr noundef %6) #0 {
  %8 = alloca ptr, align 8
  %9 = alloca i32, align 4
  %10 = alloca ptr, align 8
  %11 = alloca ptr, align 8
  %12 = alloca ptr, align 8
  %13 = alloca ptr, align 8
  %14 = alloca ptr, align 8
  store ptr %0, ptr %8, align 8
  store i32 %1, ptr %9, align 4
  store ptr %2, ptr %10, align 8
  store ptr %3, ptr %11, align 8
  store ptr %4, ptr %12, align 8
  store ptr %5, ptr %13, align 8
  store ptr %6, ptr %14, align 8
  %15 = load ptr, ptr %8, align 8
  %16 = load i32, ptr %9, align 4
  %17 = load ptr, ptr %10, align 8
  %18 = load ptr, ptr %11, align 8
  %19 = load ptr, ptr %12, align 8
  %20 = load ptr, ptr %13, align 8
  %21 = load i32, ptr @hf_witness_witness_notifyResponse_type, align 4
  %22 = load ptr, ptr %14, align 8
  %23 = call i32 @witness_dissect_enum_notifyResponse_type(ptr noundef %15, i32 noundef %16, ptr noundef %17, ptr noundef %18, ptr noundef %19, ptr noundef %20, i32 noundef %21, ptr noundef %22)
  store i32 %23, ptr %9, align 4
  %24 = load i32, ptr %9, align 4
  ret i32 %24
}

; Function Attrs: null_pointer_is_valid sspstrong uwtable
define hidden i32 @witness_dissect_struct_notifyResponse(ptr noundef %0, i32 noundef %1, ptr noundef %2, ptr noundef %3, ptr noundef %4, ptr noundef %5, i32 noundef %6, i32 noundef %7) #0 {
  %9 = alloca ptr, align 8
  %10 = alloca i32, align 4
  %11 = alloca ptr, align 8
  %12 = alloca ptr, align 8
  %13 = alloca ptr, align 8
  %14 = alloca ptr, align 8
  %15 = alloca i32, align 4
  %16 = alloca i32, align 4
  %17 = alloca ptr, align 8
  %18 = alloca ptr, align 8
  %19 = alloca ptr, align 8
  %20 = alloca i32, align 4
  store ptr %0, ptr %9, align 8
  store i32 %1, ptr %10, align 4
  store ptr %2, ptr %11, align 8
  store ptr %3, ptr %12, align 8
  store ptr %4, ptr %13, align 8
  store ptr %5, ptr %14, align 8
  store i32 %6, ptr %15, align 4
  store i32 %7, ptr %16, align 4
  call void @llvm.lifetime.start.p0(i64 8, ptr %17) #6
  store ptr null, ptr %17, align 8
  call void @llvm.lifetime.start.p0(i64 8, ptr %18) #6
  store ptr null, ptr %18, align 8
  call void @llvm.lifetime.start.p0(i64 8, ptr %19) #6
  store ptr null, ptr %19, align 8
  call void @llvm.lifetime.start.p0(i64 4, ptr %20) #6
  %21 = load ptr, ptr %13, align 8
  %22 = getelementptr inbounds nuw %struct._dcerpc_info, ptr %21, i32 0, i32 4
  %23 = load i8, ptr %22, align 1, !range !6, !noundef !7
  %24 = trunc i8 %23 to i1
  br i1 %24, label %34, label %25

25:                                               ; preds = %8
  %26 = load i32, ptr %10, align 4
  %27 = and i32 %26, 3
  %28 = icmp ne i32 %27, 0
  br i1 %28, label %29, label %33

29:                                               ; preds = %25
  %30 = load i32, ptr %10, align 4
  %31 = and i32 %30, -4
  %32 = add i32 %31, 4
  store i32 %32, ptr %10, align 4
  br label %33

33:                                               ; preds = %29, %25
  br label %34

34:                                               ; preds = %33, %8
  %35 = load ptr, ptr %13, align 8
  %36 = getelementptr inbounds nuw %struct._dcerpc_info, ptr %35, i32 0, i32 4
  %37 = load i8, ptr %36, align 1, !range !6, !noundef !7
  %38 = trunc i8 %37 to i1
  br i1 %38, label %48, label %39

39:                                               ; preds = %34
  %40 = load i32, ptr %10, align 4
  %41 = and i32 %40, 3
  %42 = icmp ne i32 %41, 0
  br i1 %42, label %43, label %47

43:                                               ; preds = %39
  %44 = load i32, ptr %10, align 4
  %45 = and i32 %44, -4
  %46 = add i32 %45, 4
  store i32 %46, ptr %10, align 4
  br label %47

47:                                               ; preds = %43, %39
  br label %48

48:                                               ; preds = %47, %34
  %49 = load i32, ptr %10, align 4
  store i32 %49, ptr %20, align 4
  %50 = load ptr, ptr %12, align 8
  %51 = icmp ne ptr %50, null
  br i1 %51, label %52, label %61

52:                                               ; preds = %48
  %53 = load ptr, ptr %12, align 8
  %54 = load i32, ptr %15, align 4
  %55 = load ptr, ptr %9, align 8
  %56 = load i32, ptr %10, align 4
  %57 = call ptr @proto_tree_add_item(ptr noundef %53, i32 noundef %54, ptr noundef %55, i32 noundef %56, i32 noundef -1, i32 noundef 0)
  store ptr %57, ptr %18, align 8
  %58 = load ptr, ptr %18, align 8
  %59 = load i32, ptr @ett_witness_witness_notifyResponse, align 4
  %60 = call ptr @proto_item_add_subtree(ptr noundef %58, i32 noundef %59)
  store ptr %60, ptr %19, align 8
  br label %61

61:                                               ; preds = %52, %48
  %62 = load ptr, ptr %11, align 8
  %63 = getelementptr inbounds nuw %struct._packet_info, ptr %62, i32 0, i32 51
  %64 = load ptr, ptr %63, align 8
  %65 = call noalias ptr @wmem_alloc0(ptr noundef %64, i64 noundef 4) #7
  store ptr %65, ptr %17, align 8
  %66 = load ptr, ptr %9, align 8
  %67 = load i32, ptr %10, align 4
  %68 = load ptr, ptr %11, align 8
  %69 = load ptr, ptr %19, align 8
  %70 = load ptr, ptr %13, align 8
  %71 = load ptr, ptr %14, align 8
  %72 = load ptr, ptr %17, align 8
  %73 = call i32 @witness_dissect_element_notifyResponse_type(ptr noundef %66, i32 noundef %67, ptr noundef %68, ptr noundef %69, ptr noundef %70, ptr noundef %71, ptr noundef %72)
  store i32 %73, ptr %10, align 4
  %74 = load ptr, ptr %9, align 8
  %75 = load i32, ptr %10, align 4
  %76 = load ptr, ptr %11, align 8
  %77 = load ptr, ptr %19, align 8
  %78 = load ptr, ptr %13, align 8
  %79 = load ptr, ptr %14, align 8
  %80 = call i32 @witness_dissect_element_notifyResponse_length(ptr noundef %74, i32 noundef %75, ptr noundef %76, ptr noundef %77, ptr noundef %78, ptr noundef %79)
  store i32 %80, ptr %10, align 4
  %81 = load ptr, ptr %9, align 8
  %82 = load i32, ptr %10, align 4
  %83 = load ptr, ptr %11, align 8
  %84 = load ptr, ptr %19, align 8
  %85 = load ptr, ptr %13, align 8
  %86 = load ptr, ptr %14, align 8
  %87 = call i32 @witness_dissect_element_notifyResponse_num(ptr noundef %81, i32 noundef %82, ptr noundef %83, ptr noundef %84, ptr noundef %85, ptr noundef %86)
  store i32 %87, ptr %10, align 4
  %88 = load ptr, ptr %17, align 8
  %89 = load ptr, ptr %13, align 8
  %90 = getelementptr inbounds nuw %struct._dcerpc_info, ptr %89, i32 0, i32 17
  store ptr %88, ptr %90, align 8
  %91 = load ptr, ptr %9, align 8
  %92 = load i32, ptr %10, align 4
  %93 = load ptr, ptr %11, align 8
  %94 = load ptr, ptr %19, align 8
  %95 = load ptr, ptr %13, align 8
  %96 = load ptr, ptr %14, align 8
  %97 = load i32, ptr @hf_witness_witness_notifyResponse_messages, align 4
  %98 = call i32 @dissect_ndr_embedded_pointer(ptr noundef %91, i32 noundef %92, ptr noundef %93, ptr noundef %94, ptr noundef %95, ptr noundef %96, ptr noundef @witness_dissect_element_notifyResponse_messages, i32 noundef 2, ptr noundef @.str.13, i32 noundef %97)
  store i32 %98, ptr %10, align 4
  %99 = load ptr, ptr %18, align 8
  %100 = load i32, ptr %10, align 4
  %101 = load i32, ptr %20, align 4
  %102 = sub i32 %100, %101
  call void @proto_item_set_len(ptr noundef %99, i32 noundef %102)
  %103 = load ptr, ptr %13, align 8
  %104 = getelementptr inbounds nuw %struct._dcerpc_info, ptr %103, i32 0, i32 14
  %105 = load ptr, ptr %104, align 8
  %106 = getelementptr inbounds nuw %struct._dcerpc_call_value, ptr %105, i32 0, i32 11
  %107 = load i32, ptr %106, align 8
  %108 = and i32 %107, 1
  %109 = icmp ne i32 %108, 0
  br i1 %109, label %110, label %125

110:                                              ; preds = %61
  %111 = load ptr, ptr %13, align 8
  %112 = getelementptr inbounds nuw %struct._dcerpc_info, ptr %111, i32 0, i32 4
  %113 = load i8, ptr %112, align 1, !range !6, !noundef !7
  %114 = trunc i8 %113 to i1
  br i1 %114, label %124, label %115

115:                                              ; preds = %110
  %116 = load i32, ptr %10, align 4
  %117 = and i32 %116, 3
  %118 = icmp ne i32 %117, 0
  br i1 %118, label %119, label %123

119:                                              ; preds = %115
  %120 = load i32, ptr %10, align 4
  %121 = and i32 %120, -4
  %122 = add i32 %121, 4
  store i32 %122, ptr %10, align 4
  br label %123

123:                                              ; preds = %119, %115
  br label %124

124:                                              ; preds = %123, %110
  br label %125

125:                                              ; preds = %124, %61
  %126 = load i32, ptr %10, align 4
  call void @llvm.lifetime.end.p0(i64 4, ptr %20) #6
  call void @llvm.lifetime.end.p0(i64 8, ptr %19) #6
  call void @llvm.lifetime.end.p0(i64 8, ptr %18) #6
  call void @llvm.lifetime.end.p0(i64 8, ptr %17) #6
  ret i32 %126
}