; Function Attrs: null_pointer_is_valid sspstrong uwtable
define hidden i32 @witness_dissect_struct_notifyResponse(ptr noundef %0, i32 noundef %1, ptr noundef %2, ptr noundef %3, ptr noundef %4, ptr noundef %5, i32 noundef %6, i32 %7) local_unnamed_addr #0 {
  %9 = alloca i32, align 4
  %10 = getelementptr inbounds nuw i8, ptr %4, i64 25
  %11 = load i8, ptr %10, align 1, !range !6, !noundef !7
  %12 = trunc nuw i8 %11 to i1
  %13 = and i32 %1, 3
  %.not = icmp eq i32 %13, 0
  %or.cond = or i1 %.not, %12
  %14 = and i32 %1, -4
  %15 = add i32 %14, 4
  %.0 = select i1 %or.cond, i32 %1, i32 %15
  %16 = and i32 %.0, 3
  %.not51 = icmp eq i32 %16, 0
  %or.cond55 = select i1 %12, i1 true, i1 %.not51
  %17 = and i32 %.0, -4
  %18 = add i32 %17, 4
  %.1 = select i1 %or.cond55, i32 %.0, i32 %18
  %.not52 = icmp eq ptr %3, null
  br i1 %.not52, label %23, label %19

19:                                               ; preds = %8
  %20 = tail call ptr @proto_tree_add_item(ptr noundef nonnull %3, i32 noundef %6, ptr noundef %0, i32 noundef %.1, i32 noundef -1, i32 noundef 0)
  %21 = load i32, ptr @ett_witness_witness_notifyResponse, align 4
  %22 = tail call ptr @proto_item_add_subtree(ptr noundef %20, i32 noundef %21)
  br label %23

23:                                               ; preds = %19, %8
  %.049 = phi ptr [ %20, %19 ], [ null, %8 ]
  %.048 = phi ptr [ %22, %19 ], [ null, %8 ]
  %24 = getelementptr inbounds nuw i8, ptr %2, i64 408
  %25 = load ptr, ptr %24, align 8
  %26 = tail call noalias dereferenceable_or_null(4) ptr @wmem_alloc0(ptr noundef %25, i64 noundef 4) #5
  %27 = load i32, ptr @hf_witness_witness_notifyResponse_type, align 4
  call void @llvm.lifetime.start.p0(i64 4, ptr nonnull %9) #6
  store i32 0, ptr %9, align 4
  %.not.i.i = icmp eq ptr %26, null
  br i1 %.not.i.i, label %.thread.i.i, label %29

.thread.i.i:                                      ; preds = %23
  %28 = call i32 @dissect_ndr_uint32(ptr noundef %0, i32 noundef %.1, ptr noundef %2, ptr noundef %.048, ptr noundef %4, ptr noundef %5, i32 noundef %27, ptr noundef nonnull %9)
  br label %witness_dissect_element_notifyResponse_type.exit

29:                                               ; preds = %23
  %30 = load i32, ptr %26, align 4
  store i32 %30, ptr %9, align 4
  %31 = call i32 @dissect_ndr_uint32(ptr noundef %0, i32 noundef %.1, ptr noundef %2, ptr noundef %.048, ptr noundef %4, ptr noundef %5, i32 noundef %27, ptr noundef nonnull %9)
  %32 = load i32, ptr %9, align 4
  store i32 %32, ptr %26, align 4
  br label %witness_dissect_element_notifyResponse_type.exit

witness_dissect_element_notifyResponse_type.exit: ; preds = %.thread.i.i, %29
  %33 = phi i32 [ %28, %.thread.i.i ], [ %31, %29 ]
  call void @llvm.lifetime.end.p0(i64 4, ptr nonnull %9) #6
  %34 = load i32, ptr @hf_witness_witness_notifyResponse_length, align 4
  %35 = call i32 @PIDL_dissect_uint32(ptr noundef %0, i32 noundef %33, ptr noundef %2, ptr noundef %.048, ptr noundef %4, ptr noundef %5, i32 noundef %34, i32 noundef 0)
  %36 = load i32, ptr @hf_witness_witness_notifyResponse_num, align 4
  %37 = call i32 @PIDL_dissect_uint32(ptr noundef %0, i32 noundef %35, ptr noundef %2, ptr noundef %.048, ptr noundef %4, ptr noundef %5, i32 noundef %36, i32 noundef 0)
  %38 = getelementptr inbounds nuw i8, ptr %4, i64 88
  store ptr %26, ptr %38, align 8
  %39 = load i32, ptr @hf_witness_witness_notifyResponse_messages, align 4
  %40 = call i32 @dissect_ndr_embedded_pointer(ptr noundef %0, i32 noundef %37, ptr noundef %2, ptr noundef %.048, ptr noundef %4, ptr noundef %5, ptr noundef nonnull @witness_dissect_element_notifyResponse_messages, i32 noundef 2, ptr noundef nonnull @.str.13, i32 noundef %39)
  %41 = sub i32 %40, %.1
  call void @proto_item_set_len(ptr noundef %.049, i32 noundef %41)
  %42 = getelementptr inbounds nuw i8, ptr %4, i64 64
  %43 = load ptr, ptr %42, align 8
  %44 = getelementptr inbounds nuw i8, ptr %43, i64 96
  %45 = load i32, ptr %44, align 8
  %46 = and i32 %45, 1
  %.not53 = icmp eq i32 %46, 0
  br i1 %.not53, label %54, label %47

47:                                               ; preds = %witness_dissect_element_notifyResponse_type.exit
  %48 = load i8, ptr %10, align 1, !range !6, !noundef !7
  %49 = trunc nuw i8 %48 to i1
  %50 = and i32 %40, 3
  %.not54 = icmp eq i32 %50, 0
  %or.cond56 = or i1 %.not54, %49
  br i1 %or.cond56, label %54, label %51

51:                                               ; preds = %47
  %52 = and i32 %40, -4
  %53 = add i32 %52, 4
  br label %54

54:                                               ; preds = %47, %51, %witness_dissect_element_notifyResponse_type.exit
  %.2 = phi i32 [ %40, %47 ], [ %53, %51 ], [ %40, %witness_dissect_element_notifyResponse_type.exit ]
  ret i32 %.2
}